target datalayout = "e-m:e-p270:32:32-p271:32:32-p272:64:64-i64:64-i128:128-f80:128-n8:16:32:64-S128"
target triple = "x86_64-pc-linux-gnu"

%struct.Aig_Obj_t_ = type { %union.anon, ptr, ptr, i64, i32, i32, %union.anon.0 }
%union.anon = type { ptr }
%union.anon.0 = type { ptr }
%struct.Fra_Man_t_ = type { ptr, ptr, ptr, i32, ptr, i32, ptr, ptr, ptr, i32, ptr, ptr, ptr, ptr, i32, ptr, i64, i64, ptr, ptr, i32, ptr, i32, i32, i32, i32, i32, i32, i32, i32, i32, i32, i32, i32, i32, i32, i32, i32, i32, i32, i32, i64, i64, i64, i64, i64, i64, i64, i64, i64, i64, i64 }
%struct.Aig_Man_t_ = type { ptr, ptr, ptr, ptr, ptr, ptr, ptr, %struct.Aig_Obj_t_, i32, i32, i32, i32, i32, i32, [7 x i32], i32, ptr, i32, ptr, i32, ptr, i32, i32, i32, ptr, i32, i32, i32, i32, i32, ptr, ptr, i32, ptr, ptr, i32, ptr, ptr, i32, i32, i32, ptr, ptr, ptr, ptr, ptr, ptr, ptr, ptr, ptr, ptr, ptr, ptr, ptr, ptr, i32, ptr, ptr, ptr, ptr, i32, i64, i64, i64, ptr, ptr }
%struct.Vec_Ptr_t_ = type { i32, i32, ptr }

; Function Attrs: inlinehint nounwind uwtable
define internal void @Abc_InfoXorBit(ptr noundef %0, i32 noundef %1) #2 {
  %3 = alloca ptr, align 8
  %4 = alloca i32, align 4
  store ptr %0, ptr %3, align 8, !tbaa !29
  store i32 %1, ptr %4, align 4, !tbaa !8
  %5 = load i32, ptr %4, align 4, !tbaa !8
  %6 = and i32 %5, 31
  %7 = shl i32 1, %6
  %8 = load ptr, ptr %3, align 8, !tbaa !29
  %9 = load i32, ptr %4, align 4, !tbaa !8
  %10 = ashr i32 %9, 5
  %11 = sext i32 %10 to i64
  %12 = getelementptr inbounds i32, ptr %8, i64 %11
  %13 = load i32, ptr %12, align 4, !tbaa !8
  %14 = xor i32 %13, %7
  store i32 %14, ptr %12, align 4, !tbaa !8
  ret void
}

; Function Attrs: inlinehint nounwind uwtable
define internal ptr @Vec_PtrEntry(ptr noundef %0, i32 noundef %1) #2 {
  %3 = alloca ptr, align 8
  %4 = alloca i32, align 4
  store ptr %0, ptr %3, align 8, !tbaa !54
  store i32 %1, ptr %4, align 4, !tbaa !8
  %5 = load ptr, ptr %3, align 8, !tbaa !54
  %6 = getelementptr inbounds nuw %struct.Vec_Ptr_t_, ptr %5, i32 0, i32 2
  %7 = load ptr, ptr %6, align 8, !tbaa !57
  %8 = load i32, ptr %4, align 4, !tbaa !8
  %9 = sext i32 %8 to i64
  %10 = getelementptr inbounds ptr, ptr %7, i64 %9
  %11 = load ptr, ptr %10, align 8, !tbaa !58
  ret ptr %11
}

; Function Attrs: inlinehint nounwind uwtable
define internal i32 @Vec_PtrSize(ptr noundef %0) #2 {
  %2 = alloca ptr, align 8
  store ptr %0, ptr %2, align 8, !tbaa !54
  %3 = load ptr, ptr %2, align 8, !tbaa !54
  %4 = getelementptr inbounds nuw %struct.Vec_Ptr_t_, ptr %3, i32 0, i32 1
  %5 = load i32, ptr %4, align 4, !tbaa !55
  ret i32 %5
}

; Function Attrs: inlinehint nounwind uwtable
define internal i32 @Aig_ManRegNum(ptr noundef %0) #2 {
  %2 = alloca ptr, align 8
  store ptr %0, ptr %2, align 8, !tbaa !52
  %3 = load ptr, ptr %2, align 8, !tbaa !52
  %4 = getelementptr inbounds nuw %struct.Aig_Man_t_, ptr %3, i32 0, i32 8
  %5 = load i32, ptr %4, align 8, !tbaa !53
  ret i32 %5
}

; Function Attrs: inlinehint nounwind uwtable
define internal i32 @Aig_ManCiNum(ptr noundef %0) #2 {
  %2 = alloca ptr, align 8
  store ptr %0, ptr %2, align 8, !tbaa !52
  %3 = load ptr, ptr %2, align 8, !tbaa !52
  %4 = getelementptr inbounds nuw %struct.Aig_Man_t_, ptr %3, i32 0, i32 14
  %5 = getelementptr inbounds [7 x i32], ptr %4, i64 0, i64 2
  %6 = load i32, ptr %5, align 8, !tbaa !8
  ret i32 %6
}

; Function Attrs: nounwind uwtable
define void @Fra_SmlSavePattern1(ptr noundef %0, i32 noundef %1) #0 {
  %3 = alloca ptr, align 8
  %4 = alloca i32, align 4
  %5 = alloca ptr, align 8
  %6 = alloca i32, align 4
  %7 = alloca i32, align 4
  %8 = alloca i32, align 4
  %9 = alloca i32, align 4
  store ptr %0, ptr %3, align 8, !tbaa !11
  store i32 %1, ptr %4, align 4, !tbaa !8
  call void @llvm.lifetime.start.p0(i64 8, ptr %5) #8
  call void @llvm.lifetime.start.p0(i64 4, ptr %6) #8
  call void @llvm.lifetime.start.p0(i64 4, ptr %7) #8
  call void @llvm.lifetime.start.p0(i64 4, ptr %8) #8
  %10 = load ptr, ptr %3, align 8, !tbaa !11
  %11 = getelementptr inbounds nuw %struct.Fra_Man_t_, ptr %10, i32 0, i32 10
  %12 = load ptr, ptr %11, align 8, !tbaa !41
  %13 = load ptr, ptr %3, align 8, !tbaa !11
  %14 = getelementptr inbounds nuw %struct.Fra_Man_t_, ptr %13, i32 0, i32 9
  %15 = load i32, ptr %14, align 8, !tbaa !42
  %16 = sext i32 %15 to i64
  %17 = mul i64 4, %16
  call void @llvm.memset.p0.i64(ptr align 4 %12, i8 -1, i64 %17, i1 false)
  %18 = load i32, ptr %4, align 4, !tbaa !8
  %19 = icmp ne i32 %18, 0
  br i1 %19, label %21, label %20

20:                                               ; preds = %2
  store i32 1, ptr %9, align 4
  br label %75

21:                                               ; preds = %2
  %22 = load ptr, ptr %3, align 8, !tbaa !11
  %23 = getelementptr inbounds nuw %struct.Fra_Man_t_, ptr %22, i32 0, i32 1
  %24 = load ptr, ptr %23, align 8, !tbaa !43
  %25 = call i32 @Aig_ManCiNum(ptr noundef %24)
  %26 = load ptr, ptr %3, align 8, !tbaa !11
  %27 = getelementptr inbounds nuw %struct.Fra_Man_t_, ptr %26, i32 0, i32 1
  %28 = load ptr, ptr %27, align 8, !tbaa !43
  %29 = call i32 @Aig_ManRegNum(ptr noundef %28)
  %30 = sub nsw i32 %25, %29
  store i32 %30, ptr %8, align 4, !tbaa !8
  store i32 0, ptr %7, align 4, !tbaa !8
  %31 = load ptr, ptr %3, align 8, !tbaa !11
  %32 = getelementptr inbounds nuw %struct.Fra_Man_t_, ptr %31, i32 0, i32 1
  %33 = load ptr, ptr %32, align 8, !tbaa !43
  %34 = call i32 @Aig_ManCiNum(ptr noundef %33)
  %35 = load ptr, ptr %3, align 8, !tbaa !11
  %36 = getelementptr inbounds nuw %struct.Fra_Man_t_, ptr %35, i32 0, i32 1
  %37 = load ptr, ptr %36, align 8, !tbaa !43
  %38 = call i32 @Aig_ManRegNum(ptr noundef %37)
  %39 = sub nsw i32 %34, %38
  store i32 %39, ptr %6, align 4, !tbaa !8
  br label %40

40:                                               ; preds = %71, %21
  %41 = load i32, ptr %6, align 4, !tbaa !8
  %42 = load ptr, ptr %3, align 8, !tbaa !11
  %43 = getelementptr inbounds nuw %struct.Fra_Man_t_, ptr %42, i32 0, i32 1
  %44 = load ptr, ptr %43, align 8, !tbaa !43
  %45 = getelementptr inbounds nuw %struct.Aig_Man_t_, ptr %44, i32 0, i32 2
  %46 = load ptr, ptr %45, align 8, !tbaa !44
  %47 = call i32 @Vec_PtrSize(ptr noundef %46)
  %48 = icmp slt i32 %41, %47
  br i1 %48, label %49, label %57

49:                                               ; preds = %40
  %50 = load ptr, ptr %3, align 8, !tbaa !11
  %51 = getelementptr inbounds nuw %struct.Fra_Man_t_, ptr %50, i32 0, i32 1
  %52 = load ptr, ptr %51, align 8, !tbaa !43
  %53 = getelementptr inbounds nuw %struct.Aig_Man_t_, ptr %52, i32 0, i32 2
  %54 = load ptr, ptr %53, align 8, !tbaa !44
  %55 = load i32, ptr %6, align 4, !tbaa !8
  %56 = call ptr @Vec_PtrEntry(ptr noundef %54, i32 noundef %55)
  store ptr %56, ptr %5, align 8, !tbaa !3
  br label %57

57:                                               ; preds = %49, %40
  %58 = phi i1 [ false, %40 ], [ true, %49 ]
  br i1 %58, label %59, label %74

59:                                               ; preds = %57
  %60 = load ptr, ptr %3, align 8, !tbaa !11
  %61 = getelementptr inbounds nuw %struct.Fra_Man_t_, ptr %60, i32 0, i32 10
  %62 = load ptr, ptr %61, align 8, !tbaa !41
  %63 = load i32, ptr %8, align 4, !tbaa !8
  %64 = load ptr, ptr %3, align 8, !tbaa !11
  %65 = getelementptr inbounds nuw %struct.Fra_Man_t_, ptr %64, i32 0, i32 3
  %66 = load i32, ptr %65, align 8, !tbaa !50
  %67 = mul nsw i32 %63, %66
  %68 = load i32, ptr %7, align 4, !tbaa !8
  %69 = add nsw i32 %68, 1
  store i32 %69, ptr %7, align 4, !tbaa !8
  %70 = add nsw i32 %67, %68
  call void @Abc_InfoXorBit(ptr noundef %62, i32 noundef %70)
  br label %71

71:                                               ; preds = %59
  %72 = load i32, ptr %6, align 4, !tbaa !8
  %73 = add nsw i32 %72, 1
  store i32 %73, ptr %6, align 4, !tbaa !8
  br label %40, !llvm.loop !51

74:                                               ; preds = %57
  store i32 0, ptr %9, align 4
  br label %75

75:                                               ; preds = %74, %20
  call void @llvm.lifetime.end.p0(i64 4, ptr %8) #8
  call void @llvm.lifetime.end.p0(i64 4, ptr %7) #8
  call void @llvm.lifetime.end.p0(i64 4, ptr %6) #8
  call void @llvm.lifetime.end.p0(i64 8, ptr %5) #8
  %76 = load i32, ptr %9, align 4
  switch i32 %76, label %78 [
    i32 0, label %77
    i32 1, label %77
  ]

77:                                               ; preds = %75, %75
  ret void

78:                                               ; preds = %75
  unreachable
}