; Function Attrs: nofree norecurse nosync nounwind memory(readwrite, inaccessiblemem: none) uwtable
define void @Fra_SmlSavePattern1(ptr noundef readonly captures(none) %0, i32 noundef %1) local_unnamed_addr #5 {
  %3 = getelementptr inbounds nuw i8, ptr %0, i64 80
  %4 = load ptr, ptr %3, align 8, !tbaa !36
  %5 = getelementptr inbounds nuw i8, ptr %0, i64 72
  %6 = load i32, ptr %5, align 8, !tbaa !37
  %7 = sext i32 %6 to i64
  %8 = shl nsw i64 %7, 2
  tail call void @llvm.memset.p0.i64(ptr align 4 %4, i8 -1, i64 %8, i1 false)
  %.not = icmp eq i32 %1, 0
  br i1 %.not, label %.critedge, label %9

9:                                                ; preds = %2
  %10 = getelementptr inbounds nuw i8, ptr %0, i64 8
  %11 = load ptr, ptr %10, align 8, !tbaa !38
  %12 = getelementptr i8, ptr %11, i64 136
  %.val = load i32, ptr %12, align 8, !tbaa !28
  %13 = getelementptr i8, ptr %11, i64 104
  %.val17 = load i32, ptr %13, align 8, !tbaa !39
  %14 = sub nsw i32 %.val, %.val17
  %15 = getelementptr inbounds nuw i8, ptr %11, i64 16
  %16 = load ptr, ptr %15, align 8, !tbaa !45
  %17 = getelementptr i8, ptr %16, i64 4
  %.val1921 = load i32, ptr %17, align 4, !tbaa !46
  %18 = icmp slt i32 %14, %.val1921
  br i1 %18, label %.lr.ph, label %.critedge

.lr.ph:                                           ; preds = %9
  %19 = load ptr, ptr %3, align 8, !tbaa !36
  %20 = getelementptr inbounds nuw i8, ptr %0, i64 24
  br label %21

21:                                               ; preds = %.lr.ph, %21
  %.023 = phi i32 [ %14, %.lr.ph ], [ %33, %21 ]
  %.01522 = phi i32 [ 0, %.lr.ph ], [ %24, %21 ]
  %22 = load i32, ptr %20, align 8, !tbaa !48
  %23 = mul nsw i32 %22, %14
  %24 = add nuw nsw i32 %.01522, 1
  %25 = add nsw i32 %23, %.01522
  %26 = and i32 %25, 31
  %27 = shl nuw i32 1, %26
  %28 = ashr i32 %25, 5
  %29 = sext i32 %28 to i64
  %30 = getelementptr inbounds i32, ptr %19, i64 %29
  %31 = load i32, ptr %30, align 4, !tbaa !28
  %32 = xor i32 %27, %31
  store i32 %32, ptr %30, align 4, !tbaa !28
  %33 = add nsw i32 %.023, 1
  %.val19 = load i32, ptr %17, align 4, !tbaa !46
  %34 = icmp slt i32 %33, %.val19
  br i1 %34, label %21, label %.critedge, !llvm.loop !49

.critedge:                                        ; preds = %21, %9, %2
  ret void
}